target datalayout = "e-m:e-p270:32:32-p271:32:32-p272:64:64-i64:64-i128:128-f80:128-n8:16:32:64-S128"
target triple = "x86_64-pc-linux-gnu"

%struct.SDL_HIDAPI_Device = type { ptr, ptr, ptr, ptr, i16, i16, i16, ptr, %struct.SDL_GUID, i32, i32, i32, i32, i16, i16, i8, i32, i32, i32, ptr, ptr, ptr, ptr, %struct.SDL_AtomicInt, i32, ptr, i8, i8, i8, ptr, i32, ptr, ptr }
%struct.SDL_GUID = type { [16 x i8] }
%struct.SDL_AtomicInt = type { i32 }
%struct.SDL_DriverPS4_Context = type { ptr, ptr, i8, i8, i8, i8, i8, i8, i8, i8, i32, i8, i8, i8, i8, i8, i8, i8, i8, [6 x %struct.IMUCalibrationData], i64, i32, i8, i8, i8, i8, i8, i8, i16, i16, i16, i16, i64, i16, i16, %struct.PS4StatePacket_t }
%struct.IMUCalibrationData = type { i16, float }
%struct.PS4StatePacket_t = type { i8, i8, i8, i8, [3 x i8], i8, i8, [2 x i8], [1 x i8], [2 x i8], [2 x i8], [2 x i8], [2 x i8], [2 x i8], [2 x i8], [5 x i8], i8, [4 x i8], i8, [3 x i8], i8, [3 x i8] }

@.str.6 = private unnamed_addr constant [40 x i8] c"SDL_JOYSTICK_HIDAPI_PS4_REPORT_INTERVAL\00", align 1
@.str.7 = private unnamed_addr constant [30 x i8] c"SDL_JOYSTICK_ENHANCED_REPORTS\00", align 1

; Function Attrs: nounwind uwtable
define internal void @HIDAPI_DriverPS4_CloseJoystick(ptr noundef %0, ptr noundef %1) #0 {
  %3 = alloca ptr, align 8
  %4 = alloca ptr, align 8
  %5 = alloca ptr, align 8
  store ptr %0, ptr %3, align 8
  store ptr %1, ptr %4, align 8
  call void @llvm.lifetime.start.p0(i64 8, ptr %5) #6
  %6 = load ptr, ptr %3, align 8
  %7 = getelementptr inbounds nuw %struct.SDL_HIDAPI_Device, ptr %6, i32 0, i32 20
  %8 = load ptr, ptr %7, align 8
  store ptr %8, ptr %5, align 8
  %9 = load ptr, ptr %5, align 8
  call void @SDL_RemoveHintCallback_REAL(ptr noundef @.str.6, ptr noundef @SDL_PS4ReportIntervalHintChanged, ptr noundef %9)
  %10 = load ptr, ptr %5, align 8
  call void @SDL_RemoveHintCallback_REAL(ptr noundef @.str.7, ptr noundef @SDL_PS4EnhancedReportsChanged, ptr noundef %10)
  %11 = load ptr, ptr %5, align 8
  %12 = getelementptr inbounds nuw %struct.SDL_DriverPS4_Context, ptr %11, i32 0, i32 1
  store ptr null, ptr %12, align 8
  %13 = load ptr, ptr %5, align 8
  %14 = getelementptr inbounds nuw %struct.SDL_DriverPS4_Context, ptr %13, i32 0, i32 15
  store i8 0, ptr %14, align 8
  %15 = load ptr, ptr %5, align 8
  %16 = getelementptr inbounds nuw %struct.SDL_DriverPS4_Context, ptr %15, i32 0, i32 12
  store i8 0, ptr %16, align 1
  %17 = load ptr, ptr %5, align 8
  %18 = getelementptr inbounds nuw %struct.SDL_DriverPS4_Context, ptr %17, i32 0, i32 13
  store i8 0, ptr %18, align 2
  call void @llvm.lifetime.end.p0(i64 8, ptr %5) #6
  ret void
}